target datalayout = "e-m:e-p270:32:32-p271:32:32-p272:64:64-i64:64-i128:128-f80:128-n8:16:32:64-S128"
target triple = "x86_64-pc-linux-gnu"

%"class.i18n::phonenumbers::PhoneNumberOfflineGeocoder" = type { ptr, ptr, %"class.boost::scoped_ptr", ptr, i32, ptr, %"class.absl::debian2::Mutex", %"class.std::map" }
%"class.boost::scoped_ptr" = type { ptr }
%"class.absl::debian2::Mutex" = type { %"struct.std::atomic" }
%"struct.std::atomic" = type { %"struct.std::__atomic_base" }
%"struct.std::__atomic_base" = type { i64 }
%"class.std::map" = type { %"class.std::_Rb_tree" }
%"class.std::_Rb_tree" = type { %"struct.std::_Rb_tree<std::__cxx11::basic_string<char>, std::pair<const std::__cxx11::basic_string<char>, const i18n::phonenumbers::AreaCodeMap *>, std::_Select1st<std::pair<const std::__cxx11::basic_string<char>, const i18n::phonenumbers::AreaCodeMap *>>, std::less<std::__cxx11::basic_string<char>>>::_Rb_tree_impl" }
%"struct.std::_Rb_tree<std::__cxx11::basic_string<char>, std::pair<const std::__cxx11::basic_string<char>, const i18n::phonenumbers::AreaCodeMap *>, std::_Select1st<std::pair<const std::__cxx11::basic_string<char>, const i18n::phonenumbers::AreaCodeMap *>>, std::less<std::__cxx11::basic_string<char>>>::_Rb_tree_impl" = type { %"struct.std::_Rb_tree_key_compare", %"struct.std::_Rb_tree_header" }
%"struct.std::_Rb_tree_key_compare" = type { %"struct.std::less" }
%"struct.std::less" = type { i8 }
%"struct.std::_Rb_tree_header" = type { %"struct.std::_Rb_tree_node_base", i64 }
%"struct.std::_Rb_tree_node_base" = type { i32, ptr, ptr, ptr }

; Function Attrs: noreturn nounwind uwtable
define linkonce_odr hidden void @__clang_call_terminate(ptr noundef %0) #8 comdat {
  %2 = call ptr @__cxa_begin_catch(ptr %0) #3
  call void @_ZSt9terminatev() #15
  unreachable
}

; Function Attrs: mustprogress nounwind uwtable
define linkonce_odr dso_local void @_ZNSt15_Rb_tree_header8_M_resetEv(ptr noundef nonnull align 8 dereferenceable(40) %0) #5 comdat align 2 {
  %2 = alloca ptr, align 8
  store ptr %0, ptr %2, align 8
  %3 = load ptr, ptr %2, align 8
  %4 = getelementptr inbounds %"struct.std::_Rb_tree_header", ptr %3, i32 0, i32 0
  %5 = getelementptr inbounds %"struct.std::_Rb_tree_node_base", ptr %4, i32 0, i32 1
  store ptr null, ptr %5, align 8
  %6 = getelementptr inbounds %"struct.std::_Rb_tree_header", ptr %3, i32 0, i32 0
  %7 = getelementptr inbounds %"struct.std::_Rb_tree_header", ptr %3, i32 0, i32 0
  %8 = getelementptr inbounds %"struct.std::_Rb_tree_node_base", ptr %7, i32 0, i32 2
  store ptr %6, ptr %8, align 8
  %9 = getelementptr inbounds %"struct.std::_Rb_tree_header", ptr %3, i32 0, i32 0
  %10 = getelementptr inbounds %"struct.std::_Rb_tree_header", ptr %3, i32 0, i32 0
  %11 = getelementptr inbounds %"struct.std::_Rb_tree_node_base", ptr %10, i32 0, i32 3
  store ptr %9, ptr %11, align 8
  %12 = getelementptr inbounds %"struct.std::_Rb_tree_header", ptr %3, i32 0, i32 1
  store i64 0, ptr %12, align 8
  ret void
}

; Function Attrs: mustprogress nounwind uwtable
define linkonce_odr dso_local void @_ZNSt15__new_allocatorISt13_Rb_tree_nodeISt4pairIKNSt7__cxx1112basic_stringIcSt11char_traitsIcESaIcEEEPKN4i18n12phonenumbers11AreaCodeMapEEEEC2Ev(ptr noundef nonnull align 1 dereferenceable(1) %0) unnamed_addr #5 comdat align 2 {
  %2 = alloca ptr, align 8
  store ptr %0, ptr %2, align 8
  ret void
}

; Function Attrs: mustprogress nounwind uwtable
define linkonce_odr dso_local void @_ZNSt15_Rb_tree_headerC2Ev(ptr noundef nonnull align 8 dereferenceable(40) %0) unnamed_addr #5 comdat align 2 personality ptr @__gxx_personality_v0 {
  %2 = alloca ptr, align 8
  store ptr %0, ptr %2, align 8
  %3 = load ptr, ptr %2, align 8
  %4 = getelementptr inbounds %"struct.std::_Rb_tree_header", ptr %3, i32 0, i32 0
  %5 = getelementptr inbounds %"struct.std::_Rb_tree_node_base", ptr %4, i32 0, i32 0
  store i32 0, ptr %5, align 8
  invoke void @_ZNSt15_Rb_tree_header8_M_resetEv(ptr noundef nonnull align 8 dereferenceable(40) %3)
          to label %6 unwind label %7

6:                                                ; preds = %1
  ret void

7:                                                ; preds = %1
  %8 = landingpad { ptr, i32 }
          catch ptr null
  %9 = extractvalue { ptr, i32 } %8, 0
  call void @__clang_call_terminate(ptr %9) #15
  unreachable
}

; Function Attrs: mustprogress nounwind uwtable
define linkonce_odr dso_local void @_ZNSt20_Rb_tree_key_compareISt4lessINSt7__cxx1112basic_stringIcSt11char_traitsIcESaIcEEEEEC2Ev(ptr noundef nonnull align 1 dereferenceable(1) %0) unnamed_addr #5 comdat align 2 {
  %2 = alloca ptr, align 8
  store ptr %0, ptr %2, align 8
  ret void
}

; Function Attrs: mustprogress nounwind uwtable
define linkonce_odr dso_local void @_ZNSaISt13_Rb_tree_nodeISt4pairIKNSt7__cxx1112basic_stringIcSt11char_traitsIcESaIcEEEPKN4i18n12phonenumbers11AreaCodeMapEEEEC2Ev(ptr noundef nonnull align 1 dereferenceable(1) %0) unnamed_addr #5 comdat align 2 {
  %2 = alloca ptr, align 8
  store ptr %0, ptr %2, align 8
  %3 = load ptr, ptr %2, align 8
  call void @_ZNSt15__new_allocatorISt13_Rb_tree_nodeISt4pairIKNSt7__cxx1112basic_stringIcSt11char_traitsIcESaIcEEEPKN4i18n12phonenumbers11AreaCodeMapEEEEC2Ev(ptr noundef nonnull align 1 dereferenceable(1) %3) #3
  ret void
}

; Function Attrs: mustprogress nounwind uwtable
define linkonce_odr dso_local void @_ZN5boost10scoped_ptrIKN4i18n12phonenumbers19MappingFileProviderEE4swapERS5_(ptr noundef nonnull align 8 dereferenceable(8) %0, ptr noundef nonnull align 8 dereferenceable(8) %1) #5 comdat align 2 {
  %3 = alloca ptr, align 8
  %4 = alloca ptr, align 8
  %5 = alloca ptr, align 8
  store ptr %0, ptr %3, align 8
  store ptr %1, ptr %4, align 8
  %6 = load ptr, ptr %3, align 8
  %7 = load ptr, ptr %4, align 8
  %8 = getelementptr inbounds %"class.boost::scoped_ptr", ptr %7, i32 0, i32 0
  %9 = load ptr, ptr %8, align 8
  store ptr %9, ptr %5, align 8
  %10 = getelementptr inbounds %"class.boost::scoped_ptr", ptr %6, i32 0, i32 0
  %11 = load ptr, ptr %10, align 8
  %12 = load ptr, ptr %4, align 8
  %13 = getelementptr inbounds %"class.boost::scoped_ptr", ptr %12, i32 0, i32 0
  store ptr %11, ptr %13, align 8
  %14 = load ptr, ptr %5, align 8
  %15 = getelementptr inbounds %"class.boost::scoped_ptr", ptr %6, i32 0, i32 0
  store ptr %14, ptr %15, align 8
  ret void
}

; Function Attrs: mustprogress nounwind uwtable
define linkonce_odr dso_local void @_ZNSt8_Rb_treeINSt7__cxx1112basic_stringIcSt11char_traitsIcESaIcEEESt4pairIKS5_PKN4i18n12phonenumbers11AreaCodeMapEESt10_Select1stISD_ESt4lessIS5_ESaISD_EE13_Rb_tree_implISH_Lb1EEC2Ev(ptr noundef nonnull align 8 dereferenceable(48) %0) unnamed_addr #5 comdat align 2 {
  %2 = alloca ptr, align 8
  store ptr %0, ptr %2, align 8
  %3 = load ptr, ptr %2, align 8
  call void @_ZNSaISt13_Rb_tree_nodeISt4pairIKNSt7__cxx1112basic_stringIcSt11char_traitsIcESaIcEEEPKN4i18n12phonenumbers11AreaCodeMapEEEEC2Ev(ptr noundef nonnull align 1 dereferenceable(1) %3) #3
  call void @_ZNSt20_Rb_tree_key_compareISt4lessINSt7__cxx1112basic_stringIcSt11char_traitsIcESaIcEEEEEC2Ev(ptr noundef nonnull align 1 dereferenceable(1) %3) #3
  %4 = getelementptr inbounds i8, ptr %3, i64 8
  call void @_ZNSt15_Rb_tree_headerC2Ev(ptr noundef nonnull align 8 dereferenceable(40) %4) #3
  ret void
}

; Function Attrs: mustprogress nounwind uwtable
define linkonce_odr dso_local void @_ZNSt13__atomic_baseIlEC2El(ptr noundef nonnull align 8 dereferenceable(8) %0, i64 noundef %1) unnamed_addr #5 comdat align 2 {
  %3 = alloca ptr, align 8
  %4 = alloca i64, align 8
  store ptr %0, ptr %3, align 8
  store i64 %1, ptr %4, align 8
  %5 = load ptr, ptr %3, align 8
  %6 = getelementptr inbounds %"struct.std::__atomic_base", ptr %5, i32 0, i32 0
  %7 = load i64, ptr %4, align 8
  store i64 %7, ptr %6, align 8
  ret void
}

; Function Attrs: mustprogress nounwind uwtable
define linkonce_odr dso_local void @_ZN5boost14checked_deleteIKN4i18n12phonenumbers19MappingFileProviderEEEvPT_(ptr noundef %0) #5 comdat {
  %2 = alloca ptr, align 8
  store ptr %0, ptr %2, align 8
  %3 = load ptr, ptr %2, align 8
  %4 = icmp eq ptr %3, null
  br i1 %4, label %6, label %5

5:                                                ; preds = %1
  call void @_ZdlPv(ptr noundef %3) #14
  br label %6

6:                                                ; preds = %5, %1
  ret void
}

; Function Attrs: mustprogress nounwind uwtable
define linkonce_odr dso_local void @_ZN5boost10scoped_ptrIKN4i18n12phonenumbers19MappingFileProviderEE5resetEPS4_(ptr noundef nonnull align 8 dereferenceable(8) %0, ptr noundef %1) #5 comdat align 2 {
  %3 = alloca ptr, align 8
  %4 = alloca ptr, align 8
  %5 = alloca %"class.boost::scoped_ptr", align 8
  store ptr %0, ptr %3, align 8
  store ptr %1, ptr %4, align 8
  %6 = load ptr, ptr %3, align 8
  %7 = load ptr, ptr %4, align 8
  call void @_ZN5boost10scoped_ptrIKN4i18n12phonenumbers19MappingFileProviderEEC2EPS4_(ptr noundef nonnull align 8 dereferenceable(8) %5, ptr noundef %7) #3
  call void @_ZN5boost10scoped_ptrIKN4i18n12phonenumbers19MappingFileProviderEE4swapERS5_(ptr noundef nonnull align 8 dereferenceable(8) %5, ptr noundef nonnull align 8 dereferenceable(8) %6) #3
  call void @_ZN5boost10scoped_ptrIKN4i18n12phonenumbers19MappingFileProviderEED2Ev(ptr noundef nonnull align 8 dereferenceable(8) %5) #3
  ret void
}

; Function Attrs: mustprogress nounwind uwtable
define linkonce_odr dso_local void @_ZNSt8_Rb_treeINSt7__cxx1112basic_stringIcSt11char_traitsIcESaIcEEESt4pairIKS5_PKN4i18n12phonenumbers11AreaCodeMapEESt10_Select1stISD_ESt4lessIS5_ESaISD_EEC2Ev(ptr noundef nonnull align 8 dereferenceable(48) %0) unnamed_addr #5 comdat align 2 {
  %2 = alloca ptr, align 8
  store ptr %0, ptr %2, align 8
  %3 = load ptr, ptr %2, align 8
  %4 = getelementptr inbounds %"class.std::_Rb_tree", ptr %3, i32 0, i32 0
  call void @_ZNSt8_Rb_treeINSt7__cxx1112basic_stringIcSt11char_traitsIcESaIcEEESt4pairIKS5_PKN4i18n12phonenumbers11AreaCodeMapEESt10_Select1stISD_ESt4lessIS5_ESaISD_EE13_Rb_tree_implISH_Lb1EEC2Ev(ptr noundef nonnull align 8 dereferenceable(48) %4) #3
  ret void
}

; Function Attrs: mustprogress nounwind uwtable
define linkonce_odr dso_local void @_ZNSt6atomicIlEC2El(ptr noundef nonnull align 8 dereferenceable(8) %0, i64 noundef %1) unnamed_addr #5 comdat align 2 {
  %3 = alloca ptr, align 8
  %4 = alloca i64, align 8
  store ptr %0, ptr %3, align 8
  store i64 %1, ptr %4, align 8
  %5 = load ptr, ptr %3, align 8
  %6 = load i64, ptr %4, align 8
  call void @_ZNSt13__atomic_baseIlEC2El(ptr noundef nonnull align 8 dereferenceable(8) %5, i64 noundef %6) #3
  ret void
}

; Function Attrs: mustprogress nounwind uwtable
define linkonce_odr dso_local void @_ZN5boost10scoped_ptrIKN4i18n12phonenumbers19MappingFileProviderEED2Ev(ptr noundef nonnull align 8 dereferenceable(8) %0) unnamed_addr #5 comdat align 2 {
  %2 = alloca ptr, align 8
  store ptr %0, ptr %2, align 8
  %3 = load ptr, ptr %2, align 8
  %4 = getelementptr inbounds %"class.boost::scoped_ptr", ptr %3, i32 0, i32 0
  %5 = load ptr, ptr %4, align 8
  call void @_ZN5boost14checked_deleteIKN4i18n12phonenumbers19MappingFileProviderEEEvPT_(ptr noundef %5) #3
  ret void
}

; Function Attrs: mustprogress uwtable
define dso_local void @_ZN4i18n12phonenumbers26PhoneNumberOfflineGeocoder4InitEPKiiPFPKNS0_16CountryLanguagesEiEPPKciPFPKNS0_18PrefixDescriptionsEiE(ptr noundef nonnull align 8 dereferenceable(104) %0, ptr noundef %1, i32 noundef %2, ptr noundef %3, ptr noundef %4, i32 noundef %5, ptr noundef %6) #4 align 2 personality ptr @__gxx_personality_v0 {
  %8 = alloca ptr, align 8
  %9 = alloca ptr, align 8
  %10 = alloca i32, align 4
  %11 = alloca ptr, align 8
  %12 = alloca ptr, align 8
  %13 = alloca i32, align 4
  %14 = alloca ptr, align 8
  %15 = alloca ptr, align 8
  %16 = alloca i32, align 4
  store ptr %0, ptr %8, align 8
  store ptr %1, ptr %9, align 8
  store i32 %2, ptr %10, align 4
  store ptr %3, ptr %11, align 8
  store ptr %4, ptr %12, align 8
  store i32 %5, ptr %13, align 4
  store ptr %6, ptr %14, align 8
  %17 = load ptr, ptr %8, align 8
  %18 = call noundef ptr @_ZN4i18n12phonenumbers15PhoneNumberUtil11GetInstanceEv()
  %19 = getelementptr inbounds %"class.i18n::phonenumbers::PhoneNumberOfflineGeocoder", ptr %17, i32 0, i32 1
  store ptr %18, ptr %19, align 8
  %20 = getelementptr inbounds %"class.i18n::phonenumbers::PhoneNumberOfflineGeocoder", ptr %17, i32 0, i32 2
  %21 = call noalias noundef nonnull ptr @_Znwm(i64 noundef 24) #13
  %22 = load ptr, ptr %9, align 8
  %23 = load i32, ptr %10, align 4
  %24 = load ptr, ptr %11, align 8
  invoke void @_ZN4i18n12phonenumbers19MappingFileProviderC1EPKiiPFPKNS0_16CountryLanguagesEiE(ptr noundef nonnull align 8 dereferenceable(24) %21, ptr noundef %22, i32 noundef %23, ptr noundef %24)
          to label %25 unwind label %32

25:                                               ; preds = %7
  call void @_ZN5boost10scoped_ptrIKN4i18n12phonenumbers19MappingFileProviderEE5resetEPS4_(ptr noundef nonnull align 8 dereferenceable(8) %20, ptr noundef %21) #3
  %26 = load ptr, ptr %12, align 8
  %27 = getelementptr inbounds %"class.i18n::phonenumbers::PhoneNumberOfflineGeocoder", ptr %17, i32 0, i32 3
  store ptr %26, ptr %27, align 8
  %28 = load i32, ptr %13, align 4
  %29 = getelementptr inbounds %"class.i18n::phonenumbers::PhoneNumberOfflineGeocoder", ptr %17, i32 0, i32 4
  store i32 %28, ptr %29, align 8
  %30 = load ptr, ptr %14, align 8
  %31 = getelementptr inbounds %"class.i18n::phonenumbers::PhoneNumberOfflineGeocoder", ptr %17, i32 0, i32 5
  store ptr %30, ptr %31, align 8
  ret void

32:                                               ; preds = %7
  %33 = landingpad { ptr, i32 }
          cleanup
  %34 = extractvalue { ptr, i32 } %33, 0
  store ptr %34, ptr %15, align 8
  %35 = extractvalue { ptr, i32 } %33, 1
  store i32 %35, ptr %16, align 4
  call void @_ZdlPv(ptr noundef %21) #14
  br label %36

36:                                               ; preds = %32
  %37 = load ptr, ptr %15, align 8
  %38 = load i32, ptr %16, align 4
  %39 = insertvalue { ptr, i32 } poison, ptr %37, 0
  %40 = insertvalue { ptr, i32 } %39, i32 %38, 1
  resume { ptr, i32 } %40
}

; Function Attrs: mustprogress nounwind uwtable
define linkonce_odr dso_local void @_ZNSt3mapINSt7__cxx1112basic_stringIcSt11char_traitsIcESaIcEEEPKN4i18n12phonenumbers11AreaCodeMapESt4lessIS5_ESaISt4pairIKS5_SA_EEEC2Ev(ptr noundef nonnull align 8 dereferenceable(48) %0) unnamed_addr #5 comdat align 2 {
  %2 = alloca ptr, align 8
  store ptr %0, ptr %2, align 8
  %3 = load ptr, ptr %2, align 8
  %4 = getelementptr inbounds %"class.std::map", ptr %3, i32 0, i32 0
  call void @_ZNSt8_Rb_treeINSt7__cxx1112basic_stringIcSt11char_traitsIcESaIcEEESt4pairIKS5_PKN4i18n12phonenumbers11AreaCodeMapEESt10_Select1stISD_ESt4lessIS5_ESaISD_EEC2Ev(ptr noundef nonnull align 8 dereferenceable(48) %4) #3
  ret void
}

; Function Attrs: mustprogress nounwind uwtable
define linkonce_odr dso_local void @_ZN4absl7debian25MutexC2Ev(ptr noundef nonnull align 8 dereferenceable(8) %0) unnamed_addr #5 comdat align 2 {
  %2 = alloca ptr, align 8
  store ptr %0, ptr %2, align 8
  %3 = load ptr, ptr %2, align 8
  %4 = getelementptr inbounds %"class.absl::debian2::Mutex", ptr %3, i32 0, i32 0
  call void @_ZNSt6atomicIlEC2El(ptr noundef nonnull align 8 dereferenceable(8) %4, i64 noundef 0) #3
  ret void
}

; Function Attrs: mustprogress nounwind uwtable
define linkonce_odr dso_local void @_ZN5boost10scoped_ptrIKN4i18n12phonenumbers19MappingFileProviderEEC2EPS4_(ptr noundef nonnull align 8 dereferenceable(8) %0, ptr noundef %1) unnamed_addr #5 comdat align 2 {
  %3 = alloca ptr, align 8
  %4 = alloca ptr, align 8
  store ptr %0, ptr %3, align 8
  store ptr %1, ptr %4, align 8
  %5 = load ptr, ptr %3, align 8
  %6 = getelementptr inbounds %"class.boost::scoped_ptr", ptr %5, i32 0, i32 0
  %7 = load ptr, ptr %4, align 8
  store ptr %7, ptr %6, align 8
  ret void
}

; Function Attrs: mustprogress uwtable
define dso_local void @_ZN4i18n12phonenumbers26PhoneNumberOfflineGeocoderC2Ev(ptr noundef nonnull align 8 dereferenceable(104) %0) unnamed_addr #4 align 2 personality ptr @__gxx_personality_v0 {
  %2 = alloca ptr, align 8
  %3 = alloca ptr, align 8
  %4 = alloca i32, align 4
  store ptr %0, ptr %2, align 8
  %5 = load ptr, ptr %2, align 8
  store ptr getelementptr inbounds ({ [4 x ptr] }, ptr @_ZTVN4i18n12phonenumbers26PhoneNumberOfflineGeocoderE, i32 0, i32 0, i32 2), ptr %5, align 8
  %6 = getelementptr inbounds %"class.i18n::phonenumbers::PhoneNumberOfflineGeocoder", ptr %5, i32 0, i32 2
  call void @_ZN5boost10scoped_ptrIKN4i18n12phonenumbers19MappingFileProviderEEC2EPS4_(ptr noundef nonnull align 8 dereferenceable(8) %6, ptr noundef null) #3
  %7 = getelementptr inbounds %"class.i18n::phonenumbers::PhoneNumberOfflineGeocoder", ptr %5, i32 0, i32 6
  invoke void @_ZN4absl7debian25MutexC2Ev(ptr noundef nonnull align 8 dereferenceable(8) %7)
          to label %8 unwind label %19

8:                                                ; preds = %1
  %9 = getelementptr inbounds %"class.i18n::phonenumbers::PhoneNumberOfflineGeocoder", ptr %5, i32 0, i32 7
  call void @_ZNSt3mapINSt7__cxx1112basic_stringIcSt11char_traitsIcESaIcEEEPKN4i18n12phonenumbers11AreaCodeMapESt4lessIS5_ESaISt4pairIKS5_SA_EEEC2Ev(ptr noundef nonnull align 8 dereferenceable(48) %9) #3
  %10 = invoke noundef ptr @_ZN4i18n12phonenumbers25get_country_calling_codesEv()
          to label %11 unwind label %23

11:                                               ; preds = %8
  %12 = invoke noundef i32 @_ZN4i18n12phonenumbers30get_country_calling_codes_sizeEv()
          to label %13 unwind label %23

13:                                               ; preds = %11
  %14 = invoke noundef ptr @_ZN4i18n12phonenumbers30get_prefix_language_code_pairsEv()
          to label %15 unwind label %23

15:                                               ; preds = %13
  %16 = invoke noundef i32 @_ZN4i18n12phonenumbers35get_prefix_language_code_pairs_sizeEv()
          to label %17 unwind label %23

17:                                               ; preds = %15
  invoke void @_ZN4i18n12phonenumbers26PhoneNumberOfflineGeocoder4InitEPKiiPFPKNS0_16CountryLanguagesEiEPPKciPFPKNS0_18PrefixDescriptionsEiE(ptr noundef nonnull align 8 dereferenceable(104) %5, ptr noundef %10, i32 noundef %12, ptr noundef @_ZN4i18n12phonenumbers21get_country_languagesEi, ptr noundef %14, i32 noundef %16, ptr noundef @_ZN4i18n12phonenumbers23get_prefix_descriptionsEi)
          to label %18 unwind label %23

18:                                               ; preds = %17
  ret void

19:                                               ; preds = %1
  %20 = landingpad { ptr, i32 }
          cleanup
  %21 = extractvalue { ptr, i32 } %20, 0
  store ptr %21, ptr %3, align 8
  %22 = extractvalue { ptr, i32 } %20, 1
  store i32 %22, ptr %4, align 4
  br label %27

23:                                               ; preds = %17, %15, %13, %11, %8
  %24 = landingpad { ptr, i32 }
          cleanup
  %25 = extractvalue { ptr, i32 } %24, 0
  store ptr %25, ptr %3, align 8
  %26 = extractvalue { ptr, i32 } %24, 1
  store i32 %26, ptr %4, align 4
  call void @_ZNSt3mapINSt7__cxx1112basic_stringIcSt11char_traitsIcESaIcEEEPKN4i18n12phonenumbers11AreaCodeMapESt4lessIS5_ESaISt4pairIKS5_SA_EEED2Ev(ptr noundef nonnull align 8 dereferenceable(48) %9) #3
  call void @_ZN4absl7debian25MutexD1Ev(ptr noundef nonnull align 8 dereferenceable(8) %7) #3
  br label %27

27:                                               ; preds = %23, %19
  call void @_ZN5boost10scoped_ptrIKN4i18n12phonenumbers19MappingFileProviderEED2Ev(ptr noundef nonnull align 8 dereferenceable(8) %6) #3
  br label %28

28:                                               ; preds = %27
  %29 = load ptr, ptr %3, align 8
  %30 = load i32, ptr %4, align 4
  %31 = insertvalue { ptr, i32 } poison, ptr %29, 0
  %32 = insertvalue { ptr, i32 } %31, i32 %30, 1
  resume { ptr, i32 } %32
}