; Function Attrs: mustprogress uwtable
define dso_local void @_ZN4i18n12phonenumbers26PhoneNumberOfflineGeocoderC2Ev(ptr noundef nonnull align 8 dereferenceable(104) %0) unnamed_addr #3 align 2 personality ptr @__gxx_personality_v0 {
  store ptr getelementptr inbounds ({ [4 x ptr] }, ptr @_ZTVN4i18n12phonenumbers26PhoneNumberOfflineGeocoderE, i64 0, i32 0, i64 2), ptr %0, align 8
  %2 = getelementptr inbounds i8, ptr %0, i64 16
  store ptr null, ptr %2, align 8
  %3 = getelementptr inbounds i8, ptr %0, i64 48
  store i64 0, ptr %3, align 8
  %4 = getelementptr inbounds i8, ptr %0, i64 56
  %5 = getelementptr inbounds i8, ptr %0, i64 64
  store i32 0, ptr %5, align 8
  %6 = getelementptr inbounds i8, ptr %0, i64 72
  store ptr null, ptr %6, align 8
  %7 = getelementptr inbounds i8, ptr %0, i64 80
  store ptr %5, ptr %7, align 8
  %8 = getelementptr inbounds i8, ptr %0, i64 88
  store ptr %5, ptr %8, align 8
  %9 = getelementptr inbounds i8, ptr %0, i64 96
  store i64 0, ptr %9, align 8
  %10 = invoke noundef ptr @_ZN4i18n12phonenumbers25get_country_calling_codesEv()
          to label %11 unwind label %31

11:                                               ; preds = %1
  %12 = invoke noundef i32 @_ZN4i18n12phonenumbers30get_country_calling_codes_sizeEv()
          to label %13 unwind label %31

13:                                               ; preds = %11
  %14 = invoke noundef ptr @_ZN4i18n12phonenumbers30get_prefix_language_code_pairsEv()
          to label %15 unwind label %31

15:                                               ; preds = %13
  %16 = invoke noundef i32 @_ZN4i18n12phonenumbers35get_prefix_language_code_pairs_sizeEv()
          to label %17 unwind label %31

17:                                               ; preds = %15
  %18 = invoke noundef ptr @_ZN4i18n12phonenumbers15PhoneNumberUtil11GetInstanceEv()
          to label %.noexc unwind label %31

.noexc:                                           ; preds = %17
  %19 = getelementptr inbounds i8, ptr %0, i64 8
  store ptr %18, ptr %19, align 8
  %20 = invoke noalias noundef nonnull dereferenceable(24) ptr @_Znwm(i64 noundef 24) #12
          to label %.noexc2 unwind label %31

.noexc2:                                          ; preds = %.noexc
  invoke void @_ZN4i18n12phonenumbers19MappingFileProviderC1EPKiiPFPKNS0_16CountryLanguagesEiE(ptr noundef nonnull align 8 dereferenceable(24) %20, ptr noundef %10, i32 noundef %12, ptr noundef nonnull @_ZN4i18n12phonenumbers21get_country_languagesEi)
          to label %21 unwind label %25

21:                                               ; preds = %.noexc2
  %22 = load ptr, ptr %2, align 8
  store ptr %20, ptr %2, align 8
  %23 = icmp eq ptr %22, null
  br i1 %23, label %27, label %24

24:                                               ; preds = %21
  tail call void @_ZdlPv(ptr noundef nonnull %22) #13
  br label %27

25:                                               ; preds = %.noexc2
  %26 = landingpad { ptr, i32 }
          cleanup
  tail call void @_ZdlPv(ptr noundef nonnull %20) #13
  br label %.body

27:                                               ; preds = %24, %21
  %28 = getelementptr inbounds i8, ptr %0, i64 24
  store ptr %14, ptr %28, align 8
  %29 = getelementptr inbounds i8, ptr %0, i64 32
  store i32 %16, ptr %29, align 8
  %30 = getelementptr inbounds i8, ptr %0, i64 40
  store ptr @_ZN4i18n12phonenumbers23get_prefix_descriptionsEi, ptr %30, align 8
  ret void

31:                                               ; preds = %.noexc, %17, %15, %13, %11, %1
  %32 = landingpad { ptr, i32 }
          cleanup
  br label %.body

.body:                                            ; preds = %25, %31
  %eh.lpad-body = phi { ptr, i32 } [ %32, %31 ], [ %26, %25 ]
  tail call void @_ZNSt3mapINSt7__cxx1112basic_stringIcSt11char_traitsIcESaIcEEEPKN4i18n12phonenumbers11AreaCodeMapESt4lessIS5_ESaISt4pairIKS5_SA_EEED2Ev(ptr noundef nonnull align 8 dereferenceable(48) %4) #14
  tail call void @_ZN4absl7debian25MutexD1Ev(ptr noundef nonnull align 8 dereferenceable(8) %3) #14
  %33 = load ptr, ptr %2, align 8
  %34 = icmp eq ptr %33, null
  br i1 %34, label %_ZN5boost10scoped_ptrIKN4i18n12phonenumbers19MappingFileProviderEED2Ev.exit, label %35

35:                                               ; preds = %.body
  tail call void @_ZdlPv(ptr noundef nonnull %33) #13
  br label %_ZN5boost10scoped_ptrIKN4i18n12phonenumbers19MappingFileProviderEED2Ev.exit

_ZN5boost10scoped_ptrIKN4i18n12phonenumbers19MappingFileProviderEED2Ev.exit: ; preds = %.body, %35
  resume { ptr, i32 } %eh.lpad-body
}